target datalayout = "e-m:e-p270:32:32-p271:32:32-p272:64:64-i64:64-i128:128-f80:128-n8:16:32:64-S128"
target triple = "x86_64-pc-linux-gnu"

%"struct.cv::GFrameDesc" = type { i32, %"class.cv::Size_" }
%"class.cv::Size_" = type { i32, i32 }
%"class.cv::Mat" = type { i32, i32, i32, i32, ptr, ptr, ptr, ptr, ptr, ptr, %"struct.cv::MatSize", %"struct.cv::MatStep" }
%"struct.cv::MatSize" = type { ptr }
%"struct.cv::MatStep" = type { ptr, [2 x i64] }
%"class.cv::MediaFrame::View" = type { %"struct.std::array", %"struct.std::array.48", %"class.std::function" }
%"struct.std::array" = type { [4 x ptr] }
%"struct.std::array.48" = type { [4 x i64] }
%"class.std::function" = type { %"class.std::_Function_base", ptr }
%"class.std::_Function_base" = type { %"union.std::_Any_data", ptr }
%"union.std::_Any_data" = type { %"union.std::_Nocopy_types" }
%"union.std::_Nocopy_types" = type { { i64, i64 } }

; Function Attrs: mustprogress nounwind uwtable
define linkonce_odr hidden noundef nonnull align 8 dereferenceable(8) ptr @_ZNSt14__array_traitsImLm4EE6_S_refERA4_Kmm(ptr noundef nonnull align 8 dereferenceable(32) %0, i64 noundef %1) #5 comdat align 2 {
  %3 = alloca ptr, align 8
  %4 = alloca i64, align 8
  store ptr %0, ptr %3, align 8
  store i64 %1, ptr %4, align 8
  %5 = load ptr, ptr %3, align 8
  %6 = load i64, ptr %4, align 8
  %7 = getelementptr inbounds [4 x i64], ptr %5, i64 0, i64 %6
  ret ptr %7
}

; Function Attrs: mustprogress nounwind uwtable
define linkonce_odr hidden noundef nonnull align 8 dereferenceable(8) ptr @_ZNSt14__array_traitsIPvLm4EE6_S_refERA4_KS0_m(ptr noundef nonnull align 8 dereferenceable(32) %0, i64 noundef %1) #5 comdat align 2 {
  %3 = alloca ptr, align 8
  %4 = alloca i64, align 8
  store ptr %0, ptr %3, align 8
  store i64 %1, ptr %4, align 8
  %5 = load ptr, ptr %3, align 8
  %6 = load i64, ptr %4, align 8
  %7 = getelementptr inbounds [4 x ptr], ptr %5, i64 0, i64 %6
  ret ptr %7
}

; Function Attrs: mustprogress nounwind uwtable
define internal noundef nonnull align 4 dereferenceable(8) ptr @_ZN2cvdVIiEERNS_5Size_IT_EES4_S2_(ptr noundef nonnull align 4 dereferenceable(8) %0, i32 noundef %1) #5 {
  %3 = alloca ptr, align 8
  %4 = alloca i32, align 4
  store ptr %0, ptr %3, align 8
  store i32 %1, ptr %4, align 4
  %5 = load i32, ptr %4, align 4
  %6 = load ptr, ptr %3, align 8
  %7 = getelementptr inbounds %"class.cv::Size_", ptr %6, i32 0, i32 0
  %8 = load i32, ptr %7, align 4
  %9 = sdiv i32 %8, %5
  store i32 %9, ptr %7, align 4
  %10 = load i32, ptr %4, align 4
  %11 = load ptr, ptr %3, align 8
  %12 = getelementptr inbounds %"class.cv::Size_", ptr %11, i32 0, i32 1
  %13 = load i32, ptr %12, align 4
  %14 = sdiv i32 %13, %10
  store i32 %14, ptr %12, align 4
  %15 = load ptr, ptr %3, align 8
  ret ptr %15
}

; Function Attrs: mustprogress nounwind uwtable
define linkonce_odr hidden noundef nonnull align 8 dereferenceable(8) ptr @_ZNKSt5arrayImLm4EEixEm(ptr noundef nonnull align 8 dereferenceable(32) %0, i64 noundef %1) #5 comdat align 2 {
  %3 = alloca ptr, align 8
  %4 = alloca i64, align 8
  store ptr %0, ptr %3, align 8
  store i64 %1, ptr %4, align 8
  %5 = load ptr, ptr %3, align 8
  %6 = getelementptr inbounds %"struct.std::array.48", ptr %5, i32 0, i32 0
  %7 = load i64, ptr %4, align 8
  %8 = call noundef nonnull align 8 dereferenceable(8) ptr @_ZNSt14__array_traitsImLm4EE6_S_refERA4_Kmm(ptr noundef nonnull align 8 dereferenceable(32) %6, i64 noundef %7) #3
  ret ptr %8
}

; Function Attrs: mustprogress nounwind uwtable
define linkonce_odr hidden noundef nonnull align 8 dereferenceable(8) ptr @_ZNKSt5arrayIPvLm4EEixEm(ptr noundef nonnull align 8 dereferenceable(32) %0, i64 noundef %1) #5 comdat align 2 {
  %3 = alloca ptr, align 8
  %4 = alloca i64, align 8
  store ptr %0, ptr %3, align 8
  store i64 %1, ptr %4, align 8
  %5 = load ptr, ptr %3, align 8
  %6 = getelementptr inbounds %"struct.std::array", ptr %5, i32 0, i32 0
  %7 = load i64, ptr %4, align 8
  %8 = call noundef nonnull align 8 dereferenceable(8) ptr @_ZNSt14__array_traitsIPvLm4EE6_S_refERA4_KS0_m(ptr noundef nonnull align 8 dereferenceable(32) %6, i64 noundef %7) #3
  ret ptr %8
}

; Function Attrs: mustprogress uwtable
define internal i64 @_ZN2cvdvIiEENS_5Size_IT_EERKS3_S2_(ptr noundef nonnull align 4 dereferenceable(8) %0, i32 noundef %1) #4 {
  %3 = alloca %"class.cv::Size_", align 4
  %4 = alloca ptr, align 8
  %5 = alloca i32, align 4
  store ptr %0, ptr %4, align 8
  store i32 %1, ptr %5, align 4
  %6 = load ptr, ptr %4, align 8
  call void @llvm.memcpy.p0.p0.i64(ptr align 4 %3, ptr align 4 %6, i64 8, i1 false)
  %7 = load i32, ptr %5, align 4
  %8 = call noundef nonnull align 4 dereferenceable(8) ptr @_ZN2cvdVIiEERNS_5Size_IT_EES4_S2_(ptr noundef nonnull align 4 dereferenceable(8) %3, i32 noundef %7)
  %9 = load i64, ptr %3, align 4
  ret i64 %9
}

; Function Attrs: mustprogress uwtable
define internal void @"_ZZN6GOCVUV5Actor11extractRMatERKN2cv10MediaFrameERNS1_4RMatEENK3$_2clERKNS1_10GFrameDescERKNS2_4ViewE"(ptr dead_on_unwind noalias writable sret(%"class.cv::Mat") align 8 %0, ptr noundef nonnull align 1 dereferenceable(1) %1, ptr noundef nonnull align 4 dereferenceable(12) %2, ptr noundef nonnull align 8 dereferenceable(96) %3) #4 align 2 {
  %5 = alloca ptr, align 8
  %6 = alloca ptr, align 8
  %7 = alloca ptr, align 8
  %8 = alloca ptr, align 8
  %9 = alloca %"class.cv::Size_", align 4
  store ptr %0, ptr %5, align 8
  store ptr %1, ptr %6, align 8
  store ptr %2, ptr %7, align 8
  store ptr %3, ptr %8, align 8
  %10 = load ptr, ptr %7, align 8
  %11 = getelementptr inbounds %"struct.cv::GFrameDesc", ptr %10, i32 0, i32 1
  %12 = call i64 @_ZN2cvdvIiEENS_5Size_IT_EERKS3_S2_(ptr noundef nonnull align 4 dereferenceable(8) %11, i32 noundef 2)
  store i64 %12, ptr %9, align 4
  %13 = load ptr, ptr %8, align 8
  %14 = getelementptr inbounds %"class.cv::MediaFrame::View", ptr %13, i32 0, i32 0
  %15 = call noundef nonnull align 8 dereferenceable(8) ptr @_ZNKSt5arrayIPvLm4EEixEm(ptr noundef nonnull align 8 dereferenceable(32) %14, i64 noundef 1) #3
  %16 = load ptr, ptr %15, align 8
  %17 = load ptr, ptr %8, align 8
  %18 = getelementptr inbounds %"class.cv::MediaFrame::View", ptr %17, i32 0, i32 1
  %19 = call noundef nonnull align 8 dereferenceable(8) ptr @_ZNKSt5arrayImLm4EEixEm(ptr noundef nonnull align 8 dereferenceable(32) %18, i64 noundef 1) #3
  %20 = load i64, ptr %19, align 8
  %21 = load i64, ptr %9, align 4
  call void @_ZN2cv3MatC1ENS_5Size_IiEEiPvm(ptr noundef nonnull align 8 dereferenceable(96) %0, i64 %21, i32 noundef 8, ptr noundef %16, i64 noundef %20)
  ret void
}

; Function Attrs: mustprogress nounwind uwtable
define linkonce_odr hidden noundef ptr @_ZNKSt9_Any_data9_M_accessEv(ptr noundef nonnull align 8 dereferenceable(16) %0) #5 comdat align 2 {
  %2 = alloca ptr, align 8
  store ptr %0, ptr %2, align 8
  %3 = load ptr, ptr %2, align 8
  %4 = getelementptr inbounds [16 x i8], ptr %3, i64 0, i64 0
  ret ptr %4
}

; Function Attrs: mustprogress uwtable
define internal void @"_ZSt13__invoke_implIN2cv3MatERZN6GOCVUV5Actor11extractRMatERKNS0_10MediaFrameERNS0_4RMatEE3$_2JRKNS0_10GFrameDescERKNS4_4ViewEEET_St14__invoke_otherOT0_DpOT1_"(ptr dead_on_unwind noalias writable sret(%"class.cv::Mat") align 8 %0, ptr noundef nonnull align 1 dereferenceable(1) %1, ptr noundef nonnull align 4 dereferenceable(12) %2, ptr noundef nonnull align 8 dereferenceable(96) %3) #4 {
  %5 = alloca ptr, align 8
  %6 = alloca ptr, align 8
  %7 = alloca ptr, align 8
  %8 = alloca ptr, align 8
  store ptr %0, ptr %5, align 8
  store ptr %1, ptr %6, align 8
  store ptr %2, ptr %7, align 8
  store ptr %3, ptr %8, align 8
  %9 = load ptr, ptr %6, align 8
  %10 = load ptr, ptr %7, align 8
  %11 = load ptr, ptr %8, align 8
  call void @"_ZZN6GOCVUV5Actor11extractRMatERKN2cv10MediaFrameERNS1_4RMatEENK3$_2clERKNS1_10GFrameDescERKNS2_4ViewE"(ptr dead_on_unwind writable sret(%"class.cv::Mat") align 8 %0, ptr noundef nonnull align 1 dereferenceable(1) %9, ptr noundef nonnull align 4 dereferenceable(12) %10, ptr noundef nonnull align 8 dereferenceable(96) %11)
  ret void
}

; Function Attrs: mustprogress nounwind uwtable
define internal noundef nonnull align 1 dereferenceable(1) ptr @"_ZNKSt9_Any_data9_M_accessIZN6GOCVUV5Actor11extractRMatERKN2cv10MediaFrameERNS3_4RMatEE3$_2EERKT_v"(ptr noundef nonnull align 8 dereferenceable(16) %0) #5 align 2 {
  %2 = alloca ptr, align 8
  store ptr %0, ptr %2, align 8
  %3 = load ptr, ptr %2, align 8
  %4 = call noundef ptr @_ZNKSt9_Any_data9_M_accessEv(ptr noundef nonnull align 8 dereferenceable(16) %3) #3
  ret ptr %4
}

; Function Attrs: mustprogress uwtable
define internal void @"_ZSt10__invoke_rIN2cv3MatERZN6GOCVUV5Actor11extractRMatERKNS0_10MediaFrameERNS0_4RMatEE3$_2JRKNS0_10GFrameDescERKNS4_4ViewEEENSt9enable_ifIXsr6__and_ISt6__not_ISt7is_voidIT_EESt14is_convertibleINSt15__invoke_resultIT0_JDpT1_EE4typeESK_EEE5valueESK_E4typeEOSP_DpOSQ_"(ptr dead_on_unwind noalias writable sret(%"class.cv::Mat") align 8 %0, ptr noundef nonnull align 1 dereferenceable(1) %1, ptr noundef nonnull align 4 dereferenceable(12) %2, ptr noundef nonnull align 8 dereferenceable(96) %3) #4 {
  %5 = alloca ptr, align 8
  %6 = alloca ptr, align 8
  %7 = alloca ptr, align 8
  %8 = alloca ptr, align 8
  store ptr %0, ptr %5, align 8
  store ptr %1, ptr %6, align 8
  store ptr %2, ptr %7, align 8
  store ptr %3, ptr %8, align 8
  %9 = load ptr, ptr %6, align 8
  %10 = load ptr, ptr %7, align 8
  %11 = load ptr, ptr %8, align 8
  call void @"_ZSt13__invoke_implIN2cv3MatERZN6GOCVUV5Actor11extractRMatERKNS0_10MediaFrameERNS0_4RMatEE3$_2JRKNS0_10GFrameDescERKNS4_4ViewEEET_St14__invoke_otherOT0_DpOT1_"(ptr dead_on_unwind writable sret(%"class.cv::Mat") align 8 %0, ptr noundef nonnull align 1 dereferenceable(1) %9, ptr noundef nonnull align 4 dereferenceable(12) %10, ptr noundef nonnull align 8 dereferenceable(96) %11)
  ret void
}

; Function Attrs: mustprogress nounwind uwtable
define internal noundef ptr @"_ZNSt14_Function_base13_Base_managerIZN6GOCVUV5Actor11extractRMatERKN2cv10MediaFrameERNS3_4RMatEE3$_2E14_M_get_pointerERKSt9_Any_data"(ptr noundef nonnull align 8 dereferenceable(16) %0) #5 align 2 {
  %2 = alloca ptr, align 8
  %3 = alloca ptr, align 8
  store ptr %0, ptr %2, align 8
  %4 = load ptr, ptr %2, align 8
  %5 = call noundef nonnull align 1 dereferenceable(1) ptr @"_ZNKSt9_Any_data9_M_accessIZN6GOCVUV5Actor11extractRMatERKN2cv10MediaFrameERNS3_4RMatEE3$_2EERKT_v"(ptr noundef nonnull align 8 dereferenceable(16) %4) #3
  store ptr %5, ptr %3, align 8
  %6 = load ptr, ptr %3, align 8
  ret ptr %6
}

; Function Attrs: mustprogress uwtable
define internal void @"_ZNSt17_Function_handlerIFN2cv3MatERKNS0_10GFrameDescERKNS0_10MediaFrame4ViewEEZN6GOCVUV5Actor11extractRMatERKS5_RNS0_4RMatEE3$_2E9_M_invokeERKSt9_Any_dataS4_S8_"(ptr dead_on_unwind noalias writable sret(%"class.cv::Mat") align 8 %0, ptr noundef nonnull align 8 dereferenceable(16) %1, ptr noundef nonnull align 4 dereferenceable(12) %2, ptr noundef nonnull align 8 dereferenceable(96) %3) #4 align 2 {
  %5 = alloca ptr, align 8
  %6 = alloca ptr, align 8
  %7 = alloca ptr, align 8
  %8 = alloca ptr, align 8
  store ptr %0, ptr %5, align 8
  store ptr %1, ptr %6, align 8
  store ptr %2, ptr %7, align 8
  store ptr %3, ptr %8, align 8
  %9 = load ptr, ptr %6, align 8
  %10 = call noundef ptr @"_ZNSt14_Function_base13_Base_managerIZN6GOCVUV5Actor11extractRMatERKN2cv10MediaFrameERNS3_4RMatEE3$_2E14_M_get_pointerERKSt9_Any_data"(ptr noundef nonnull align 8 dereferenceable(16) %9) #3
  %11 = load ptr, ptr %7, align 8
  %12 = load ptr, ptr %8, align 8
  call void @"_ZSt10__invoke_rIN2cv3MatERZN6GOCVUV5Actor11extractRMatERKNS0_10MediaFrameERNS0_4RMatEE3$_2JRKNS0_10GFrameDescERKNS4_4ViewEEENSt9enable_ifIXsr6__and_ISt6__not_ISt7is_voidIT_EESt14is_convertibleINSt15__invoke_resultIT0_JDpT1_EE4typeESK_EEE5valueESK_E4typeEOSP_DpOSQ_"(ptr dead_on_unwind writable sret(%"class.cv::Mat") align 8 %0, ptr noundef nonnull align 1 dereferenceable(1) %10, ptr noundef nonnull align 4 dereferenceable(12) %11, ptr noundef nonnull align 8 dereferenceable(96) %12)
  ret void
}