; Function Attrs: mustprogress uwtable
define internal void @"_ZNSt17_Function_handlerIFN2cv3MatERKNS0_10GFrameDescERKNS0_10MediaFrame4ViewEEZN6GOCVUV5Actor11extractRMatERKS5_RNS0_4RMatEE3$_2E9_M_invokeERKSt9_Any_dataS4_S8_"(ptr dead_on_unwind noalias nonnull writable sret(%"class.cv::Mat") align 8 %0, ptr nocapture nonnull readnone align 8 %1, ptr nocapture noundef nonnull readonly align 4 dereferenceable(12) %2, ptr nocapture noundef nonnull readonly align 8 dereferenceable(96) %3) #3 align 2 {
  %5 = getelementptr inbounds i8, ptr %2, i64 4
  %.val = load i64, ptr %5, align 4
  %6 = getelementptr inbounds i8, ptr %3, i64 8
  %.val3 = load ptr, ptr %6, align 8
  %7 = getelementptr inbounds i8, ptr %3, i64 40
  %.val4 = load i64, ptr %7, align 8
  %.sroa.0.0.extract.trunc.i.i.i.i = trunc i64 %.val to i32
  %.sroa.4.0.extract.shift.i.i.i.i = lshr i64 %.val, 32
  %.sroa.4.0.extract.trunc.i.i.i.i = trunc nuw i64 %.sroa.4.0.extract.shift.i.i.i.i to i32
  %8 = sdiv i32 %.sroa.0.0.extract.trunc.i.i.i.i, 2
  %9 = sdiv i32 %.sroa.4.0.extract.trunc.i.i.i.i, 2
  %.sroa.4.0.insert.ext.i.i.i.i = zext i32 %9 to i64
  %.sroa.4.0.insert.shift.i.i.i.i = shl nuw i64 %.sroa.4.0.insert.ext.i.i.i.i, 32
  %.sroa.0.0.insert.ext.i.i.i.i = zext i32 %8 to i64
  %.sroa.0.0.insert.insert.i.i.i.i = or disjoint i64 %.sroa.4.0.insert.shift.i.i.i.i, %.sroa.0.0.insert.ext.i.i.i.i
  tail call void @_ZN2cv3MatC1ENS_5Size_IiEEiPvm(ptr noundef nonnull align 8 dereferenceable(96) %0, i64 %.sroa.0.0.insert.insert.i.i.i.i, i32 noundef 8, ptr noundef %.val3, i64 noundef %.val4)
  ret void
}